Certificate:
    Data:
        Version: 3 (0x2)
        Serial Number: 24 (0x18)
        Signature Algorithm: sha1WithRSAEncryption
        Issuer: C=CN, ST=BJ, L=beijing, O=ScaleThink, OU=op, CN=vpn.scalethink.com/name=openvpn/emailAddress=admin@scalethink.com
        Validity
            Not Before: Oct 17 06:33:14 2012 GMT
            Not After : Oct 15 06:33:14 2022 GMT
        Subject: C=CN, ST=BJ, L=beijing, O=ScaleThink, CN=zhangy/emailAddress=admin@scalethink.com
        Subject Public Key Info:
            Public Key Algorithm: rsaEncryption
            RSA Public Key: (1024 bit)
                Modulus (1024 bit):
                    00:ca:aa:ad:67:8f:67:a9:cb:07:d6:51:6e:c9:1f:
                    ec:49:c4:68:71:97:17:96:52:83:5f:7e:7c:e5:fa:
                    3d:f6:c2:42:65:d9:eb:7c:2e:85:45:f9:7e:8f:c4:
                    96:e1:5b:8d:77:41:7d:af:a1:38:0e:4a:9f:ad:1e:
                    fd:df:40:5e:da:27:49:56:5e:e9:f4:11:d1:1f:18:
                    15:69:b4:95:6a:26:a1:29:41:c1:c3:79:07:74:01:
                    fd:d5:c8:17:20:dd:b2:22:96:cf:9d:3a:16:2b:0f:
                    04:f1:c2:2b:25:91:a8:b4:0a:49:a4:85:0d:73:9b:
                    be:54:4f:fa:2c:db:7f:b0:2b
                Exponent: 65537 (0x10001)
        X509v3 extensions:
            X509v3 Basic Constraints: 
                CA:FALSE
            Netscape Comment: 
                Easy-RSA Generated Certificate
            X509v3 Subject Key Identifier: 
                C8:80:12:D3:65:21:B3:51:11:B1:EE:02:AC:22:7C:28:D1:89:AF:AB
            X509v3 Authority Key Identifier: 
                keyid:A1:F1:4D:02:35:2E:B6:FC:51:F0:B9:96:22:66:F4:F9:20:ED:46:BA
                DirName:/C=CN/ST=BJ/L=beijing/O=ScaleThink/OU=op/CN=vpn.scalethink.com/name=openvpn/emailAddress=admin@scalethink.com
                serial:D6:C1:2F:0E:89:D6:BD:B4

            X509v3 Extended Key Usage: 
                TLS Web Client Authentication
            X509v3 Key Usage: 
                Digital Signature
    Signature Algorithm: sha1WithRSAEncryption
        79:07:a0:1e:d5:b8:e0:09:52:02:89:b9:76:c6:57:b4:ee:17:
        52:83:af:95:1e:17:9f:2a:01:c1:ed:4c:1d:62:02:31:04:f3:
        27:31:6f:d1:8a:76:f0:aa:29:17:d9:9a:d1:fb:ac:da:e3:53:
        fe:82:37:ce:53:c8:1d:00:93:1e:f5:66:21:02:af:70:e5:c7:
        37:2d:f1:7f:6d:92:a9:fb:04:72:3a:4b:1c:11:47:48:a5:01:
        2b:10:68:88:13:69:75:7f:c4:ab:53:d5:99:b9:95:50:25:d1:
        f5:43:d4:30:b8:08:f7:25:98:33:24:fa:4b:62:5f:54:1e:32:
        ca:76
-----BEGIN CERTIFICATE-----
MIID6zCCA1SgAwIBAgIBGDANBgkqhkiG9w0BAQUFADCBojELMAkGA1UEBhMCQ04x
CzAJBgNVBAgTAkJKMRAwDgYDVQQHEwdiZWlqaW5nMRMwEQYDVQQKEwpTY2FsZVRo
aW5rMQswCQYDVQQLEwJvcDEbMBkGA1UEAxMSdnBuLnNjYWxldGhpbmsuY29tMRAw
DgYDVQQpEwdvcGVudnBuMSMwIQYJKoZIhvcNAQkBFhRhZG1pbkBzY2FsZXRoaW5r
LmNvbTAeFw0xMjEwMTcwNjMzMTRaFw0yMjEwMTUwNjMzMTRaMHcxCzAJBgNVBAYT
AkNOMQswCQYDVQQIEwJCSjEQMA4GA1UEBxMHYmVpamluZzETMBEGA1UEChMKU2Nh
bGVUaGluazEPMA0GA1UEAxMGemhhbmd5MSMwIQYJKoZIhvcNAQkBFhRhZG1pbkBz
Y2FsZXRoaW5rLmNvbTCBnzANBgkqhkiG9w0BAQEFAAOBjQAwgYkCgYEAyqqtZ49n
qcsH1lFuyR/sScRocZcXllKDX3585fo99sJCZdnrfC6FRfl+j8SW4VuNd0F9r6E4
DkqfrR7930Be2idJVl7p9BHRHxgVabSVaiahKUHBw3kHdAH91cgXIN2yIpbPnToW
Kw8E8cIrJZGotApJpIUNc5u+VE/6LNt/sCsCAwEAAaOCAVkwggFVMAkGA1UdEwQC
MAAwLQYJYIZIAYb4QgENBCAWHkVhc3ktUlNBIEdlbmVyYXRlZCBDZXJ0aWZpY2F0
ZTAdBgNVHQ4EFgQUyIAS02Uhs1ERse4CrCJ8KNGJr6swgdcGA1UdIwSBzzCBzIAU
ofFNAjUutvxR8LmWImb0+SDtRrqhgaikgaUwgaIxCzAJBgNVBAYTAkNOMQswCQYD
VQQIEwJCSjEQMA4GA1UEBxMHYmVpamluZzETMBEGA1UEChMKU2NhbGVUaGluazEL
MAkGA1UECxMCb3AxGzAZBgNVBAMTEnZwbi5zY2FsZXRoaW5rLmNvbTEQMA4GA1UE
KRMHb3BlbnZwbjEjMCEGCSqGSIb3DQEJARYUYWRtaW5Ac2NhbGV0aGluay5jb22C
CQDWwS8Oida9tDATBgNVHSUEDDAKBggrBgEFBQcDAjALBgNVHQ8EBAMCB4AwDQYJ
KoZIhvcNAQEFBQADgYEAeQegHtW44AlSAom5dsZXtO4XUoOvlR4XnyoBwe1MHWIC
MQTzJzFv0Yp28KopF9ma0fus2uNT/oI3zlPIHQCTHvVmIQKvcOXHNy3xf22SqfsE
cjpLHBFHSKUBKxBoiBNpdX/Eq1PVmbmVUCXR9UPUMLgI9yWYMyT6S2JfVB4yynY=
-----END CERTIFICATE-----
