Certificate:
    Data:
        Version: 3 (0x2)
        Serial Number: 2 (0x2)
        Signature Algorithm: sha1WithRSAEncryption
        Issuer: C=CN, ST=BJ, L=beijing, O=ScaleThink, OU=op, CN=vpn.scalethink.com/name=openvpn/emailAddress=admin@scalethink.com
        Validity
            Not Before: Oct 13 13:09:01 2010 GMT
            Not After : Oct 10 13:09:01 2020 GMT
        Subject: C=CN, ST=BJ, L=beijing, O=ScaleThink, OU=op, CN=stvpn/name=i/emailAddress=i@scalethink.com
        Subject Public Key Info:
            Public Key Algorithm: rsaEncryption
            RSA Public Key: (1024 bit)
                Modulus (1024 bit):
                    00:b0:d6:a8:ae:00:2e:11:b0:e0:8b:f3:b9:2d:d4:
                    30:c3:e1:15:83:bd:8c:9d:d3:c5:ef:73:00:63:ec:
                    3a:90:bc:d9:86:ab:67:21:6f:bf:d8:38:05:92:13:
                    7c:f8:3b:b1:1e:aa:75:ca:29:50:7d:04:3c:fb:18:
                    5d:2a:92:7b:e1:11:80:5a:93:08:8f:8c:ee:24:67:
                    b4:c2:70:aa:75:c1:04:e7:8e:77:6b:49:d1:9d:76:
                    00:9c:50:b5:62:fb:a9:85:ad:16:1c:ed:2f:8c:f6:
                    e1:f0:ba:95:d8:62:c2:88:fb:09:44:4f:8e:d8:cf:
                    dd:b2:f6:c5:ba:fc:5c:e4:49
                Exponent: 65537 (0x10001)
        X509v3 extensions:
            X509v3 Basic Constraints: 
                CA:FALSE
            Netscape Comment: 
                Easy-RSA Generated Certificate
            X509v3 Subject Key Identifier: 
                30:D4:05:B8:82:58:D5:E1:E2:F9:5E:42:DC:6D:1B:F0:81:DE:41:E6
            X509v3 Authority Key Identifier: 
                keyid:A1:F1:4D:02:35:2E:B6:FC:51:F0:B9:96:22:66:F4:F9:20:ED:46:BA
                DirName:/C=CN/ST=BJ/L=beijing/O=ScaleThink/OU=op/CN=vpn.scalethink.com/name=openvpn/emailAddress=admin@scalethink.com
                serial:D6:C1:2F:0E:89:D6:BD:B4

            X509v3 Extended Key Usage: 
                TLS Web Client Authentication
            X509v3 Key Usage: 
                Digital Signature
    Signature Algorithm: sha1WithRSAEncryption
        9e:ea:f1:c3:07:b4:5f:a3:66:d8:7f:30:34:1c:1c:b0:d1:e6:
        68:68:b7:3a:9c:17:ca:4b:dd:dd:f3:4c:3e:1f:43:07:06:c0:
        a1:1c:20:cb:6f:60:cc:2b:38:52:23:bb:42:c8:a1:1e:d7:32:
        93:18:99:66:4e:e1:5c:98:5d:4b:c3:fa:41:84:78:d0:38:17:
        ef:a7:27:79:45:fa:03:e3:c9:63:b8:e1:12:d6:ad:9a:22:5c:
        d4:0b:03:cb:e9:8c:16:55:93:33:49:e2:eb:b2:80:8b:1c:05:
        66:42:b3:81:d6:68:30:63:06:91:c5:ac:eb:9d:df:3f:5f:c6:
        45:a5
-----BEGIN CERTIFICATE-----
MIIEADCCA2mgAwIBAgIBAjANBgkqhkiG9w0BAQUFADCBojELMAkGA1UEBhMCQ04x
CzAJBgNVBAgTAkJKMRAwDgYDVQQHEwdiZWlqaW5nMRMwEQYDVQQKEwpTY2FsZVRo
aW5rMQswCQYDVQQLEwJvcDEbMBkGA1UEAxMSdnBuLnNjYWxldGhpbmsuY29tMRAw
DgYDVQQpEwdvcGVudnBuMSMwIQYJKoZIhvcNAQkBFhRhZG1pbkBzY2FsZXRoaW5r
LmNvbTAeFw0xMDEwMTMxMzA5MDFaFw0yMDEwMTAxMzA5MDFaMIGLMQswCQYDVQQG
EwJDTjELMAkGA1UECBMCQkoxEDAOBgNVBAcTB2JlaWppbmcxEzARBgNVBAoTClNj
YWxlVGhpbmsxCzAJBgNVBAsTAm9wMQ4wDAYDVQQDEwVzdHZwbjEKMAgGA1UEKRMB
aTEfMB0GCSqGSIb3DQEJARYQaUBzY2FsZXRoaW5rLmNvbTCBnzANBgkqhkiG9w0B
AQEFAAOBjQAwgYkCgYEAsNaorgAuEbDgi/O5LdQww+EVg72MndPF73MAY+w6kLzZ
hqtnIW+/2DgFkhN8+DuxHqp1yilQfQQ8+xhdKpJ74RGAWpMIj4zuJGe0wnCqdcEE
5453a0nRnXYAnFC1Yvupha0WHO0vjPbh8LqV2GLCiPsJRE+O2M/dsvbFuvxc5EkC
AwEAAaOCAVkwggFVMAkGA1UdEwQCMAAwLQYJYIZIAYb4QgENBCAWHkVhc3ktUlNB
IEdlbmVyYXRlZCBDZXJ0aWZpY2F0ZTAdBgNVHQ4EFgQUMNQFuIJY1eHi+V5C3G0b
8IHeQeYwgdcGA1UdIwSBzzCBzIAUofFNAjUutvxR8LmWImb0+SDtRrqhgaikgaUw
gaIxCzAJBgNVBAYTAkNOMQswCQYDVQQIEwJCSjEQMA4GA1UEBxMHYmVpamluZzET
MBEGA1UEChMKU2NhbGVUaGluazELMAkGA1UECxMCb3AxGzAZBgNVBAMTEnZwbi5z
Y2FsZXRoaW5rLmNvbTEQMA4GA1UEKRMHb3BlbnZwbjEjMCEGCSqGSIb3DQEJARYU
YWRtaW5Ac2NhbGV0aGluay5jb22CCQDWwS8Oida9tDATBgNVHSUEDDAKBggrBgEF
BQcDAjALBgNVHQ8EBAMCB4AwDQYJKoZIhvcNAQEFBQADgYEAnurxwwe0X6Nm2H8w
NBwcsNHmaGi3OpwXykvd3fNMPh9DBwbAoRwgy29gzCs4UiO7QsihHtcykxiZZk7h
XJhdS8P6QYR40DgX76cneUX6A+PJY7jhEtatmiJc1AsDy+mMFlWTM0ni67KAixwF
ZkKzgdZoMGMGkcWs653fP1/GRaU=
-----END CERTIFICATE-----
