Certificate:
    Data:
        Version: 3 (0x2)
        Serial Number: 12 (0xc)
        Signature Algorithm: sha1WithRSAEncryption
        Issuer: C=CN, ST=BJ, L=Mudanyuan, O=umeng, CN=Fort-Funston CA/emailAddress=operations@umeng.com
        Validity
            Not Before: Dec 10 04:21:00 2012 GMT
            Not After : Dec  8 04:21:00 2022 GMT
        Subject: C=US, ST=CA, L=SanFrancisco, O=Fort-Funston, CN=zhangyan/emailAddress=me@myhost.mydomain
        Subject Public Key Info:
            Public Key Algorithm: rsaEncryption
            RSA Public Key: (1024 bit)
                Modulus (1024 bit):
                    00:b3:6b:b5:60:1b:b0:74:ea:34:f7:22:88:f3:bb:
                    f0:5b:53:bb:cb:0c:6d:48:06:68:25:0a:1f:05:9f:
                    bd:1c:14:5b:f5:b2:c3:b9:5a:fe:69:bd:60:7d:9f:
                    7d:2a:65:40:82:fc:0b:b2:7d:c2:ad:f4:43:9c:66:
                    02:59:df:08:44:64:96:51:dc:3d:b5:bd:1d:09:2f:
                    52:90:e5:1f:3e:8a:33:2c:c7:da:ee:3c:62:df:a7:
                    aa:8c:fc:ed:ba:cb:9c:46:ec:26:e2:43:18:6c:28:
                    5e:b9:70:50:ae:97:07:94:ee:20:c5:9c:10:25:ac:
                    c5:40:f4:c4:44:48:31:f2:13
                Exponent: 65537 (0x10001)
        X509v3 extensions:
            X509v3 Basic Constraints: 
                CA:FALSE
            Netscape Comment: 
                Easy-RSA Generated Certificate
            X509v3 Subject Key Identifier: 
                1A:59:5A:85:A8:54:FF:07:0B:62:E4:5B:E5:96:3C:E3:0E:DE:17:A3
            X509v3 Authority Key Identifier: 
                keyid:5C:A6:95:A1:A9:4D:EC:67:0B:10:77:01:40:09:0C:B3:89:8F:27:B1
                DirName:/C=CN/ST=BJ/L=Mudanyuan/O=umeng/CN=Fort-Funston CA/emailAddress=operations@umeng.com
                serial:96:BA:A5:9F:4D:CA:73:E7

            X509v3 Extended Key Usage: 
                TLS Web Client Authentication
            X509v3 Key Usage: 
                Digital Signature
    Signature Algorithm: sha1WithRSAEncryption
        47:70:1a:e7:09:d1:d2:29:d0:53:1e:3f:ce:32:00:a6:dc:81:
        db:15:d2:f5:02:28:52:85:2d:8a:86:28:4d:81:95:ad:ac:0d:
        54:b2:83:99:b3:b1:55:a4:49:82:24:8f:86:d9:8d:c3:ba:90:
        38:17:e5:9c:79:9e:09:52:b8:48:95:6e:1c:a3:56:38:95:45:
        71:79:7e:e6:ab:93:2b:1b:28:cb:e4:54:7b:28:bf:df:e2:9a:
        ab:0d:8d:85:c9:f3:2f:08:63:35:fb:b1:a2:31:8c:4c:9e:b3:
        0f:b3:e9:77:54:87:7e:b5:51:35:a8:c9:8c:b6:fe:87:4d:43:
        0b:81
-----BEGIN CERTIFICATE-----
MIIDpTCCAw6gAwIBAgIBDDANBgkqhkiG9w0BAQUFADB9MQswCQYDVQQGEwJDTjEL
MAkGA1UECBMCQkoxEjAQBgNVBAcTCU11ZGFueXVhbjEOMAwGA1UEChMFdW1lbmcx
GDAWBgNVBAMTD0ZvcnQtRnVuc3RvbiBDQTEjMCEGCSqGSIb3DQEJARYUb3BlcmF0
aW9uc0B1bWVuZy5jb20wHhcNMTIxMjEwMDQyMTAwWhcNMjIxMjA4MDQyMTAwWjB+
MQswCQYDVQQGEwJVUzELMAkGA1UECBMCQ0ExFTATBgNVBAcTDFNhbkZyYW5jaXNj
bzEVMBMGA1UEChMMRm9ydC1GdW5zdG9uMREwDwYDVQQDEwh6aGFuZ3lhbjEhMB8G
CSqGSIb3DQEJARYSbWVAbXlob3N0Lm15ZG9tYWluMIGfMA0GCSqGSIb3DQEBAQUA
A4GNADCBiQKBgQCza7VgG7B06jT3Iojzu/BbU7vLDG1IBmglCh8Fn70cFFv1ssO5
Wv5pvWB9n30qZUCC/AuyfcKt9EOcZgJZ3whEZJZR3D21vR0JL1KQ5R8+ijMsx9ru
PGLfp6qM/O26y5xG7CbiQxhsKF65cFCulweU7iDFnBAlrMVA9MRESDHyEwIDAQAB
o4IBMjCCAS4wCQYDVR0TBAIwADAtBglghkgBhvhCAQ0EIBYeRWFzeS1SU0EgR2Vu
ZXJhdGVkIENlcnRpZmljYXRlMB0GA1UdDgQWBBQaWVqFqFT/Bwti5FvlljzjDt4X
ozCBsAYDVR0jBIGoMIGlgBRcppWhqU3sZwsQdwFACQyziY8nsaGBgaR/MH0xCzAJ
BgNVBAYTAkNOMQswCQYDVQQIEwJCSjESMBAGA1UEBxMJTXVkYW55dWFuMQ4wDAYD
VQQKEwV1bWVuZzEYMBYGA1UEAxMPRm9ydC1GdW5zdG9uIENBMSMwIQYJKoZIhvcN
AQkBFhRvcGVyYXRpb25zQHVtZW5nLmNvbYIJAJa6pZ9NynPnMBMGA1UdJQQMMAoG
CCsGAQUFBwMCMAsGA1UdDwQEAwIHgDANBgkqhkiG9w0BAQUFAAOBgQBHcBrnCdHS
KdBTHj/OMgCm3IHbFdL1AihShS2KhihNgZWtrA1UsoOZs7FVpEmCJI+G2Y3DupA4
F+WceZ4JUrhIlW4co1Y4lUVxeX7mq5MrGyjL5FR7KL/f4pqrDY2FyfMvCGM1+7Gi
MYxMnrMPs+l3VId+tVE1qMmMtv6HTUMLgQ==
-----END CERTIFICATE-----
