Certificate:
    Data:
        Version: 3 (0x2)
        Serial Number: 30 (0x1e)
        Signature Algorithm: sha1WithRSAEncryption
        Issuer: C=CN, ST=BJ, L=beijing, O=ScaleThink, OU=op, CN=vpn.scalethink.com/name=openvpn/emailAddress=admin@scalethink.com
        Validity
            Not Before: Nov 19 04:02:09 2012 GMT
            Not After : Nov 17 04:02:09 2022 GMT
        Subject: C=CN, ST=BJ, L=beijing, O=ScaleThink, CN=zhangyan-2/emailAddress=admin@scalethink.com
        Subject Public Key Info:
            Public Key Algorithm: rsaEncryption
            RSA Public Key: (1024 bit)
                Modulus (1024 bit):
                    00:d1:2c:d8:b5:a0:f1:c6:69:58:71:d5:7f:b4:17:
                    55:d7:c8:c7:75:65:26:4c:43:6b:f7:0c:95:a6:53:
                    13:dd:cd:e7:88:ac:42:fc:09:04:92:c8:39:ce:d9:
                    c8:25:c5:76:7a:f3:8e:2e:be:18:27:40:1d:fa:46:
                    cf:49:ab:2e:68:82:60:18:ff:6c:4c:ed:a0:fc:99:
                    19:10:3b:71:93:44:ed:f8:53:58:ca:f3:c1:ad:b9:
                    5e:b5:01:0f:70:09:4b:59:1f:9d:74:41:9a:3d:7b:
                    8e:eb:94:90:10:34:af:e5:16:ec:0e:6d:e0:96:95:
                    5b:f2:e3:60:47:2c:6f:eb:0f
                Exponent: 65537 (0x10001)
        X509v3 extensions:
            X509v3 Basic Constraints: 
                CA:FALSE
            Netscape Comment: 
                Easy-RSA Generated Certificate
            X509v3 Subject Key Identifier: 
                B0:CD:70:E1:32:CF:99:31:6F:ED:0B:76:E2:B7:3A:42:04:69:16:8A
            X509v3 Authority Key Identifier: 
                keyid:A1:F1:4D:02:35:2E:B6:FC:51:F0:B9:96:22:66:F4:F9:20:ED:46:BA
                DirName:/C=CN/ST=BJ/L=beijing/O=ScaleThink/OU=op/CN=vpn.scalethink.com/name=openvpn/emailAddress=admin@scalethink.com
                serial:D6:C1:2F:0E:89:D6:BD:B4

            X509v3 Extended Key Usage: 
                TLS Web Client Authentication
            X509v3 Key Usage: 
                Digital Signature
    Signature Algorithm: sha1WithRSAEncryption
        96:af:f0:ae:a6:44:f2:70:46:a9:4e:28:32:70:16:8f:ec:80:
        07:33:4e:b9:b3:d5:b8:64:68:b3:a0:4d:6a:2f:41:d5:33:95:
        fc:34:28:09:6f:84:79:2b:dd:ac:b2:28:3d:21:9e:52:8a:74:
        8a:7f:6f:db:7f:1f:4a:ff:a0:6e:27:f1:36:b1:f6:f3:54:71:
        76:ec:82:04:e3:06:3e:39:c3:ba:24:9e:23:85:9d:64:b2:91:
        1c:af:c9:18:4f:a5:80:75:4f:45:aa:e2:c3:45:cb:ba:16:03:
        a9:67:13:ee:11:7d:1d:0d:07:c9:73:82:87:bb:b0:45:42:a7:
        70:5c
-----BEGIN CERTIFICATE-----
MIID7zCCA1igAwIBAgIBHjANBgkqhkiG9w0BAQUFADCBojELMAkGA1UEBhMCQ04x
CzAJBgNVBAgTAkJKMRAwDgYDVQQHEwdiZWlqaW5nMRMwEQYDVQQKEwpTY2FsZVRo
aW5rMQswCQYDVQQLEwJvcDEbMBkGA1UEAxMSdnBuLnNjYWxldGhpbmsuY29tMRAw
DgYDVQQpEwdvcGVudnBuMSMwIQYJKoZIhvcNAQkBFhRhZG1pbkBzY2FsZXRoaW5r
LmNvbTAeFw0xMjExMTkwNDAyMDlaFw0yMjExMTcwNDAyMDlaMHsxCzAJBgNVBAYT
AkNOMQswCQYDVQQIEwJCSjEQMA4GA1UEBxMHYmVpamluZzETMBEGA1UEChMKU2Nh
bGVUaGluazETMBEGA1UEAxMKemhhbmd5YW4tMjEjMCEGCSqGSIb3DQEJARYUYWRt
aW5Ac2NhbGV0aGluay5jb20wgZ8wDQYJKoZIhvcNAQEBBQADgY0AMIGJAoGBANEs
2LWg8cZpWHHVf7QXVdfIx3VlJkxDa/cMlaZTE93N54isQvwJBJLIOc7ZyCXFdnrz
ji6+GCdAHfpGz0mrLmiCYBj/bEztoPyZGRA7cZNE7fhTWMrzwa25XrUBD3AJS1kf
nXRBmj17juuUkBA0r+UW7A5t4JaVW/LjYEcsb+sPAgMBAAGjggFZMIIBVTAJBgNV
HRMEAjAAMC0GCWCGSAGG+EIBDQQgFh5FYXN5LVJTQSBHZW5lcmF0ZWQgQ2VydGlm
aWNhdGUwHQYDVR0OBBYEFLDNcOEyz5kxb+0LduK3OkIEaRaKMIHXBgNVHSMEgc8w
gcyAFKHxTQI1Lrb8UfC5liJm9Pkg7Ua6oYGopIGlMIGiMQswCQYDVQQGEwJDTjEL
MAkGA1UECBMCQkoxEDAOBgNVBAcTB2JlaWppbmcxEzARBgNVBAoTClNjYWxlVGhp
bmsxCzAJBgNVBAsTAm9wMRswGQYDVQQDExJ2cG4uc2NhbGV0aGluay5jb20xEDAO
BgNVBCkTB29wZW52cG4xIzAhBgkqhkiG9w0BCQEWFGFkbWluQHNjYWxldGhpbmsu
Y29tggkA1sEvDonWvbQwEwYDVR0lBAwwCgYIKwYBBQUHAwIwCwYDVR0PBAQDAgeA
MA0GCSqGSIb3DQEBBQUAA4GBAJav8K6mRPJwRqlOKDJwFo/sgAczTrmz1bhkaLOg
TWovQdUzlfw0KAlvhHkr3ayyKD0hnlKKdIp/b9t/H0r/oG4n8Tax9vNUcXbsggTj
Bj45w7okniOFnWSykRyvyRhPpYB1T0Wq4sNFy7oWA6lnE+4RfR0NB8lzgoe7sEVC
p3Bc
-----END CERTIFICATE-----
