Certificate:
    Data:
        Version: 3 (0x2)
        Serial Number: 16 (0x10)
        Signature Algorithm: sha1WithRSAEncryption
        Issuer: C=CN, ST=BJ, L=beijing, O=ScaleThink, OU=op, CN=vpn.scalethink.com/name=openvpn/emailAddress=admin@scalethink.com
        Validity
            Not Before: Aug  6 09:30:10 2012 GMT
            Not After : Aug  4 09:30:10 2022 GMT
        Subject: C=CN, ST=BJ, L=beijing, O=ScaleThink, CN=zhangyan/emailAddress=admin@scalethink.com
        Subject Public Key Info:
            Public Key Algorithm: rsaEncryption
            RSA Public Key: (1024 bit)
                Modulus (1024 bit):
                    00:a2:13:95:bb:0b:fb:0d:8b:6f:48:68:c8:0f:11:
                    b3:2b:d9:4f:0c:9f:b8:0e:3c:7e:32:6b:58:50:bd:
                    65:d7:a9:d6:6e:0f:6d:e7:be:28:ee:46:8b:3d:e4:
                    16:12:f9:eb:4f:4f:ae:f8:9a:68:fc:43:92:4b:ab:
                    67:20:f1:62:17:90:eb:f4:79:ef:ae:f7:73:5d:70:
                    e2:19:76:dc:c2:5e:f0:27:e1:8c:fa:98:e0:dd:b5:
                    75:6a:45:0b:51:67:f9:91:ab:ac:ec:30:a9:df:18:
                    65:1a:de:f5:4b:b3:76:f8:f2:f0:bb:92:1e:2f:29:
                    49:fc:d7:b2:cd:e2:77:fa:9f
                Exponent: 65537 (0x10001)
        X509v3 extensions:
            X509v3 Basic Constraints: 
                CA:FALSE
            Netscape Comment: 
                Easy-RSA Generated Certificate
            X509v3 Subject Key Identifier: 
                31:68:AD:20:7A:8B:64:57:A2:EE:82:B6:0D:5F:01:B1:50:17:43:7E
            X509v3 Authority Key Identifier: 
                keyid:A1:F1:4D:02:35:2E:B6:FC:51:F0:B9:96:22:66:F4:F9:20:ED:46:BA
                DirName:/C=CN/ST=BJ/L=beijing/O=ScaleThink/OU=op/CN=vpn.scalethink.com/name=openvpn/emailAddress=admin@scalethink.com
                serial:D6:C1:2F:0E:89:D6:BD:B4

            X509v3 Extended Key Usage: 
                TLS Web Client Authentication
            X509v3 Key Usage: 
                Digital Signature
    Signature Algorithm: sha1WithRSAEncryption
        c3:3b:6b:c8:eb:8e:aa:37:81:43:03:96:c9:61:7d:92:84:2d:
        99:87:0f:6a:3d:37:6f:68:f1:69:f4:57:e9:d3:2c:d9:42:88:
        87:1b:80:53:52:e1:16:31:c5:ce:c7:79:b9:f0:07:3e:5d:df:
        43:67:56:76:06:e1:ee:f2:62:7a:1e:ea:bd:90:bd:28:3b:75:
        66:78:29:38:70:16:01:49:35:16:18:ec:b0:80:35:a0:57:59:
        7e:69:7d:a0:b4:0b:26:a1:01:e3:ef:a9:7d:de:23:53:fd:d3:
        b9:2c:4a:f5:35:f3:ec:38:43:2b:63:28:e2:43:ac:e8:ac:c7:
        44:4a
-----BEGIN CERTIFICATE-----
MIID7TCCA1agAwIBAgIBEDANBgkqhkiG9w0BAQUFADCBojELMAkGA1UEBhMCQ04x
CzAJBgNVBAgTAkJKMRAwDgYDVQQHEwdiZWlqaW5nMRMwEQYDVQQKEwpTY2FsZVRo
aW5rMQswCQYDVQQLEwJvcDEbMBkGA1UEAxMSdnBuLnNjYWxldGhpbmsuY29tMRAw
DgYDVQQpEwdvcGVudnBuMSMwIQYJKoZIhvcNAQkBFhRhZG1pbkBzY2FsZXRoaW5r
LmNvbTAeFw0xMjA4MDYwOTMwMTBaFw0yMjA4MDQwOTMwMTBaMHkxCzAJBgNVBAYT
AkNOMQswCQYDVQQIEwJCSjEQMA4GA1UEBxMHYmVpamluZzETMBEGA1UEChMKU2Nh
bGVUaGluazERMA8GA1UEAxMIemhhbmd5YW4xIzAhBgkqhkiG9w0BCQEWFGFkbWlu
QHNjYWxldGhpbmsuY29tMIGfMA0GCSqGSIb3DQEBAQUAA4GNADCBiQKBgQCiE5W7
C/sNi29IaMgPEbMr2U8Mn7gOPH4ya1hQvWXXqdZuD23nvijuRos95BYS+etPT674
mmj8Q5JLq2cg8WIXkOv0ee+u93NdcOIZdtzCXvAn4Yz6mODdtXVqRQtRZ/mRq6zs
MKnfGGUa3vVLs3b48vC7kh4vKUn817LN4nf6nwIDAQABo4IBWTCCAVUwCQYDVR0T
BAIwADAtBglghkgBhvhCAQ0EIBYeRWFzeS1SU0EgR2VuZXJhdGVkIENlcnRpZmlj
YXRlMB0GA1UdDgQWBBQxaK0geotkV6LugrYNXwGxUBdDfjCB1wYDVR0jBIHPMIHM
gBSh8U0CNS62/FHwuZYiZvT5IO1GuqGBqKSBpTCBojELMAkGA1UEBhMCQ04xCzAJ
BgNVBAgTAkJKMRAwDgYDVQQHEwdiZWlqaW5nMRMwEQYDVQQKEwpTY2FsZVRoaW5r
MQswCQYDVQQLEwJvcDEbMBkGA1UEAxMSdnBuLnNjYWxldGhpbmsuY29tMRAwDgYD
VQQpEwdvcGVudnBuMSMwIQYJKoZIhvcNAQkBFhRhZG1pbkBzY2FsZXRoaW5rLmNv
bYIJANbBLw6J1r20MBMGA1UdJQQMMAoGCCsGAQUFBwMCMAsGA1UdDwQEAwIHgDAN
BgkqhkiG9w0BAQUFAAOBgQDDO2vI646qN4FDA5bJYX2ShC2Zhw9qPTdvaPFp9Ffp
0yzZQoiHG4BTUuEWMcXOx3m58Ac+Xd9DZ1Z2BuHu8mJ6Huq9kL0oO3VmeCk4cBYB
STUWGOywgDWgV1l+aX2gtAsmoQHj76l93iNT/dO5LEr1NfPsOEMrYyjiQ6zorMdE
Sg==
-----END CERTIFICATE-----
